target datalayout = "e-m:e-p270:32:32-p271:32:32-p272:64:64-i64:64-i128:128-f80:128-n8:16:32:64-S128"
target triple = "x86_64-pc-linux-gnu"

%struct.darktable_t = type { %struct.dt_codepath_t, i32, i32, ptr, ptr, ptr, ptr, ptr, ptr, ptr, ptr, ptr, ptr, ptr, ptr, ptr, ptr, ptr, ptr, ptr, ptr, ptr, ptr, ptr, ptr, ptr, ptr, ptr, ptr, ptr, [64 x %struct.dt_pthread_mutex_t], %struct.dt_pthread_mutex_t, %struct.dt_pthread_mutex_t, %struct.dt_pthread_mutex_t, %struct.dt_pthread_mutex_t, %struct.dt_pthread_mutex_t, ptr, ptr, ptr, ptr, ptr, ptr, ptr, ptr, ptr, ptr, ptr, ptr, ptr, %struct.dt_lua_state_t, ptr, double, ptr, i32, [47 x i32], i32, i32, ptr, ptr, %struct.dt_sys_resources_t, %struct.dt_backthumb_t, %struct.dt_gimp_t }
%struct.dt_codepath_t = type { i8, [3 x i8] }
%struct.dt_pthread_mutex_t = type { %union.pthread_mutex_t }
%union.pthread_mutex_t = type { %struct.__pthread_mutex_s }
%struct.__pthread_mutex_s = type { i32, i32, i32, i32, i32, i16, i16, %struct.__pthread_internal_list }
%struct.__pthread_internal_list = type { ptr, ptr }
%struct.dt_lua_state_t = type { i32 }
%struct.dt_sys_resources_t = type { i64, i64, ptr, ptr, i32 }
%struct.dt_backthumb_t = type { double, double, i32, i32, i32, i32 }
%struct.dt_gimp_t = type { i32, ptr, ptr, i32, i32 }
%struct.dt_import_session_t = type { i32, ptr, ptr, ptr, ptr }

@darktable = external global %struct.darktable_t, align 8
@.str.4 = private unnamed_addr constant [2 x i8] c"/\00", align 1
@.str.9 = private unnamed_addr constant [44 x i8] c"[import_session] Failed to get session path\00", align 1
@.str.10 = private unnamed_addr constant [58 x i8] c"requested session path not available. device not mounted?\00", align 1
@.str.13 = private unnamed_addr constant [53 x i8] c"[import_session] Failed to get session path pattern.\00", align 1
@.str.14 = private unnamed_addr constant [31 x i8] c"session/base_directory_pattern\00", align 1
@.str.15 = private unnamed_addr constant [30 x i8] c"session/sub_directory_pattern\00", align 1
@.str.16 = private unnamed_addr constant [50 x i8] c"[import_session] No base or subpath configured...\00", align 1
@.str.17 = private unnamed_addr constant [50 x i8] c"[import_session] failed to create session path %s\00", align 1
@.str.18 = private unnamed_addr constant [48 x i8] c"[import_session] Failed to initialize film roll\00", align 1

; Function Attrs: nounwind uwtable
define internal i32 @_import_session_initialize_filmroll(ptr noundef %0, ptr noundef %1) #0 {
  %3 = alloca i32, align 4
  %4 = alloca ptr, align 8
  %5 = alloca ptr, align 8
  %6 = alloca i32, align 4
  %7 = alloca i32, align 4
  store ptr %0, ptr %4, align 8, !tbaa !6
  store ptr %1, ptr %5, align 8, !tbaa !64
  %8 = load ptr, ptr %4, align 8, !tbaa !6
  call void @_import_session_cleanup_filmroll(ptr noundef %8)
  %9 = load ptr, ptr %5, align 8, !tbaa !64
  %10 = call i32 @g_mkdir_with_parents(ptr noundef %9, i32 noundef 493)
  %11 = icmp eq i32 %10, -1
  br i1 %11, label %12, label %23

12:                                               ; preds = %2
  br label %13

13:                                               ; preds = %12
  %14 = load i32, ptr getelementptr inbounds nuw (%struct.darktable_t, ptr @darktable, i32 0, i32 2), align 8, !tbaa !62
  %15 = xor i32 %14, -1
  %16 = and i32 0, %15
  %17 = icmp ne i32 %16, 0
  br i1 %17, label %20, label %18

18:                                               ; preds = %13
  %19 = load ptr, ptr %5, align 8, !tbaa !64
  call void (ptr, ...) @dt_print_ext(ptr noundef @.str.17, ptr noundef %19)
  br label %20

20:                                               ; preds = %18, %13
  br label %21

21:                                               ; preds = %20
  %22 = load ptr, ptr %4, align 8, !tbaa !6
  call void @_import_session_cleanup_filmroll(ptr noundef %22)
  store i32 1, ptr %3, align 4
  br label %53

23:                                               ; preds = %2
  %24 = call noalias ptr @g_malloc0(i64 noundef 584) #7
  %25 = load ptr, ptr %4, align 8, !tbaa !6
  %26 = getelementptr inbounds nuw %struct.dt_import_session_t, ptr %25, i32 0, i32 1
  store ptr %24, ptr %26, align 8, !tbaa !18
  call void @llvm.lifetime.start.p0(i64 4, ptr %6) #6
  %27 = load ptr, ptr %4, align 8, !tbaa !6
  %28 = getelementptr inbounds nuw %struct.dt_import_session_t, ptr %27, i32 0, i32 1
  %29 = load ptr, ptr %28, align 8, !tbaa !18
  %30 = load ptr, ptr %5, align 8, !tbaa !64
  %31 = call i32 @dt_film_new(ptr noundef %29, ptr noundef %30)
  store i32 %31, ptr %6, align 4, !tbaa !25
  %32 = load i32, ptr %6, align 4, !tbaa !25
  %33 = icmp sgt i32 %32, 0
  br i1 %33, label %45, label %34

34:                                               ; preds = %23
  br label %35

35:                                               ; preds = %34
  %36 = load i32, ptr getelementptr inbounds nuw (%struct.darktable_t, ptr @darktable, i32 0, i32 2), align 8, !tbaa !62
  %37 = xor i32 %36, -1
  %38 = and i32 0, %37
  %39 = icmp ne i32 %38, 0
  br i1 %39, label %41, label %40

40:                                               ; preds = %35
  call void (ptr, ...) @dt_print_ext(ptr noundef @.str.18)
  br label %41

41:                                               ; preds = %40, %35
  br label %42

42:                                               ; preds = %41
  br label %43

43:                                               ; preds = %42
  %44 = load ptr, ptr %4, align 8, !tbaa !6
  call void @_import_session_cleanup_filmroll(ptr noundef %44)
  store i32 1, ptr %3, align 4
  store i32 1, ptr %7, align 4
  br label %52

45:                                               ; preds = %23
  %46 = load ptr, ptr %4, align 8, !tbaa !6
  %47 = getelementptr inbounds nuw %struct.dt_import_session_t, ptr %46, i32 0, i32 3
  %48 = load ptr, ptr %47, align 8, !tbaa !23
  call void @g_free(ptr noundef %48)
  %49 = load ptr, ptr %5, align 8, !tbaa !64
  %50 = load ptr, ptr %4, align 8, !tbaa !6
  %51 = getelementptr inbounds nuw %struct.dt_import_session_t, ptr %50, i32 0, i32 3
  store ptr %49, ptr %51, align 8, !tbaa !23
  store i32 0, ptr %3, align 4
  store i32 1, ptr %7, align 4
  br label %52

52:                                               ; preds = %45, %43
  call void @llvm.lifetime.end.p0(i64 4, ptr %6) #6
  br label %53

53:                                               ; preds = %52, %21
  %54 = load i32, ptr %3, align 4
  ret i32 %54
}

; Function Attrs: nounwind uwtable
define internal ptr @_import_session_path_pattern() #0 {
  %1 = alloca ptr, align 8
  %2 = alloca ptr, align 8
  %3 = alloca ptr, align 8
  call void @llvm.lifetime.start.p0(i64 8, ptr %1) #6
  store ptr null, ptr %1, align 8, !tbaa !64
  call void @llvm.lifetime.start.p0(i64 8, ptr %2) #6
  %4 = call ptr @dt_conf_get_string_const(ptr noundef @.str.14)
  store ptr %4, ptr %2, align 8, !tbaa !64
  call void @llvm.lifetime.start.p0(i64 8, ptr %3) #6
  %5 = call ptr @dt_conf_get_string_const(ptr noundef @.str.15)
  store ptr %5, ptr %3, align 8, !tbaa !64
  %6 = load ptr, ptr %3, align 8, !tbaa !64
  %7 = icmp ne ptr %6, null
  br i1 %7, label %8, label %11

8:                                                ; preds = %0
  %9 = load ptr, ptr %2, align 8, !tbaa !64
  %10 = icmp ne ptr %9, null
  br i1 %10, label %21, label %11

11:                                               ; preds = %8, %0
  br label %12

12:                                               ; preds = %11
  %13 = load i32, ptr getelementptr inbounds nuw (%struct.darktable_t, ptr @darktable, i32 0, i32 2), align 8, !tbaa !62
  %14 = xor i32 %13, -1
  %15 = and i32 0, %14
  %16 = icmp ne i32 %15, 0
  br i1 %16, label %18, label %17

17:                                               ; preds = %12
  call void (ptr, ...) @dt_print_ext(ptr noundef @.str.16)
  br label %18

18:                                               ; preds = %17, %12
  br label %19

19:                                               ; preds = %18
  br label %20

20:                                               ; preds = %19
  br label %25

21:                                               ; preds = %8
  %22 = load ptr, ptr %2, align 8, !tbaa !64
  %23 = load ptr, ptr %3, align 8, !tbaa !64
  %24 = call noalias ptr (ptr, ptr, ...) @g_build_path(ptr noundef @.str.4, ptr noundef %22, ptr noundef %23, ptr noundef null)
  store ptr %24, ptr %1, align 8, !tbaa !64
  br label %25

25:                                               ; preds = %21, %20
  %26 = load ptr, ptr %1, align 8, !tbaa !64
  call void @llvm.lifetime.end.p0(i64 8, ptr %3) #6
  call void @llvm.lifetime.end.p0(i64 8, ptr %2) #6
  call void @llvm.lifetime.end.p0(i64 8, ptr %1) #6
  ret ptr %26
}

; Function Attrs: nounwind uwtable
define internal ptr @_import_session_path(ptr noundef %0, i32 noundef %1) #0 {
  %3 = alloca ptr, align 8
  %4 = alloca ptr, align 8
  %5 = alloca i32, align 4
  %6 = alloca i32, align 4
  %7 = alloca i32, align 4
  %8 = alloca ptr, align 8
  %9 = alloca ptr, align 8
  store ptr %0, ptr %4, align 8, !tbaa !6
  store i32 %1, ptr %5, align 4, !tbaa !25
  call void @llvm.lifetime.start.p0(i64 4, ptr %6) #6
  %10 = load ptr, ptr %4, align 8, !tbaa !6
  %11 = getelementptr inbounds nuw %struct.dt_import_session_t, ptr %10, i32 0, i32 3
  %12 = load ptr, ptr %11, align 8, !tbaa !23
  %13 = call i32 @dt_util_test_writable_dir(ptr noundef %12)
  store i32 %13, ptr %6, align 4, !tbaa !25
  %14 = load i32, ptr %5, align 4, !tbaa !25
  %15 = icmp ne i32 %14, 0
  br i1 %15, label %16, label %34

16:                                               ; preds = %2
  %17 = load ptr, ptr %4, align 8, !tbaa !6
  %18 = getelementptr inbounds nuw %struct.dt_import_session_t, ptr %17, i32 0, i32 3
  %19 = load ptr, ptr %18, align 8, !tbaa !23
  %20 = icmp ne ptr %19, null
  br i1 %20, label %21, label %34

21:                                               ; preds = %16
  %22 = load i32, ptr %6, align 4, !tbaa !25
  %23 = icmp ne i32 %22, 0
  br i1 %23, label %24, label %28

24:                                               ; preds = %21
  %25 = load ptr, ptr %4, align 8, !tbaa !6
  %26 = getelementptr inbounds nuw %struct.dt_import_session_t, ptr %25, i32 0, i32 3
  %27 = load ptr, ptr %26, align 8, !tbaa !23
  store ptr %27, ptr %3, align 8
  store i32 1, ptr %7, align 4
  br label %97

28:                                               ; preds = %21
  %29 = load ptr, ptr %4, align 8, !tbaa !6
  %30 = getelementptr inbounds nuw %struct.dt_import_session_t, ptr %29, i32 0, i32 3
  %31 = load ptr, ptr %30, align 8, !tbaa !23
  call void @g_free(ptr noundef %31)
  %32 = load ptr, ptr %4, align 8, !tbaa !6
  %33 = getelementptr inbounds nuw %struct.dt_import_session_t, ptr %32, i32 0, i32 3
  store ptr null, ptr %33, align 8, !tbaa !23
  store ptr null, ptr %3, align 8
  store i32 1, ptr %7, align 4
  br label %97

34:                                               ; preds = %16, %2
  call void @llvm.lifetime.start.p0(i64 8, ptr %8) #6
  %35 = call ptr @_import_session_path_pattern()
  store ptr %35, ptr %8, align 8, !tbaa !64
  %36 = load ptr, ptr %8, align 8, !tbaa !64
  %37 = icmp eq ptr %36, null
  br i1 %37, label %38, label %48

38:                                               ; preds = %34
  br label %39

39:                                               ; preds = %38
  %40 = load i32, ptr getelementptr inbounds nuw (%struct.darktable_t, ptr @darktable, i32 0, i32 2), align 8, !tbaa !62
  %41 = xor i32 %40, -1
  %42 = and i32 0, %41
  %43 = icmp ne i32 %42, 0
  br i1 %43, label %45, label %44

44:                                               ; preds = %39
  call void (ptr, ...) @dt_print_ext(ptr noundef @.str.13)
  br label %45

45:                                               ; preds = %44, %39
  br label %46

46:                                               ; preds = %45
  br label %47

47:                                               ; preds = %46
  store ptr null, ptr %3, align 8
  store i32 1, ptr %7, align 4
  br label %96

48:                                               ; preds = %34
  call void @llvm.lifetime.start.p0(i64 8, ptr %9) #6
  %49 = load ptr, ptr %4, align 8, !tbaa !6
  %50 = getelementptr inbounds nuw %struct.dt_import_session_t, ptr %49, i32 0, i32 2
  %51 = load ptr, ptr %50, align 8, !tbaa !17
  %52 = load ptr, ptr %8, align 8, !tbaa !64
  %53 = call ptr @dt_variables_expand(ptr noundef %51, ptr noundef %52, i32 noundef 0)
  store ptr %53, ptr %9, align 8, !tbaa !64
  %54 = load ptr, ptr %8, align 8, !tbaa !64
  call void @g_free(ptr noundef %54)
  %55 = load ptr, ptr %4, align 8, !tbaa !6
  %56 = getelementptr inbounds nuw %struct.dt_import_session_t, ptr %55, i32 0, i32 3
  %57 = load ptr, ptr %56, align 8, !tbaa !23
  %58 = icmp ne ptr %57, null
  br i1 %58, label %59, label %75

59:                                               ; preds = %48
  %60 = load ptr, ptr %4, align 8, !tbaa !6
  %61 = getelementptr inbounds nuw %struct.dt_import_session_t, ptr %60, i32 0, i32 3
  %62 = load ptr, ptr %61, align 8, !tbaa !23
  %63 = load ptr, ptr %9, align 8, !tbaa !64
  %64 = call i32 @strcmp(ptr noundef %62, ptr noundef %63) #8
  %65 = icmp eq i32 %64, 0
  br i1 %65, label %66, label %75

66:                                               ; preds = %59
  %67 = load ptr, ptr %9, align 8, !tbaa !64
  call void @g_free(ptr noundef %67)
  store ptr null, ptr %9, align 8, !tbaa !64
  %68 = load i32, ptr %6, align 4, !tbaa !25
  %69 = icmp ne i32 %68, 0
  br i1 %69, label %70, label %74

70:                                               ; preds = %66
  %71 = load ptr, ptr %4, align 8, !tbaa !6
  %72 = getelementptr inbounds nuw %struct.dt_import_session_t, ptr %71, i32 0, i32 3
  %73 = load ptr, ptr %72, align 8, !tbaa !23
  store ptr %73, ptr %3, align 8
  store i32 1, ptr %7, align 4
  br label %95

74:                                               ; preds = %66
  br label %75

75:                                               ; preds = %74, %59, %48
  %76 = load i32, ptr %6, align 4, !tbaa !25
  %77 = icmp ne i32 %76, 0
  br i1 %77, label %84, label %78

78:                                               ; preds = %75
  %79 = load ptr, ptr %4, align 8, !tbaa !6
  %80 = getelementptr inbounds nuw %struct.dt_import_session_t, ptr %79, i32 0, i32 3
  %81 = load ptr, ptr %80, align 8, !tbaa !23
  call void @g_free(ptr noundef %81)
  %82 = load ptr, ptr %4, align 8, !tbaa !6
  %83 = getelementptr inbounds nuw %struct.dt_import_session_t, ptr %82, i32 0, i32 3
  store ptr null, ptr %83, align 8, !tbaa !23
  br label %84

84:                                               ; preds = %78, %75
  %85 = load ptr, ptr %4, align 8, !tbaa !6
  %86 = load ptr, ptr %9, align 8, !tbaa !64
  %87 = call i32 @_import_session_initialize_filmroll(ptr noundef %85, ptr noundef %86)
  %88 = icmp ne i32 %87, 0
  br i1 %88, label %89, label %91

89:                                               ; preds = %84
  %90 = load ptr, ptr %9, align 8, !tbaa !64
  call void @g_free(ptr noundef %90)
  store ptr null, ptr %3, align 8
  store i32 1, ptr %7, align 4
  br label %95

91:                                               ; preds = %84
  %92 = load ptr, ptr %4, align 8, !tbaa !6
  %93 = getelementptr inbounds nuw %struct.dt_import_session_t, ptr %92, i32 0, i32 3
  %94 = load ptr, ptr %93, align 8, !tbaa !23
  store ptr %94, ptr %3, align 8
  store i32 1, ptr %7, align 4
  br label %95

95:                                               ; preds = %91, %89, %70
  call void @llvm.lifetime.end.p0(i64 8, ptr %9) #6
  br label %96

96:                                               ; preds = %95, %47
  call void @llvm.lifetime.end.p0(i64 8, ptr %8) #6
  br label %97

97:                                               ; preds = %96, %28, %24
  call void @llvm.lifetime.end.p0(i64 4, ptr %6) #6
  %98 = load ptr, ptr %3, align 8
  ret ptr %98
}

; Function Attrs: nounwind uwtable
define ptr @dt_import_session_path(ptr noundef %0, i32 noundef %1) #0 {
  %3 = alloca ptr, align 8
  %4 = alloca i32, align 4
  %5 = alloca ptr, align 8
  store ptr %0, ptr %3, align 8, !tbaa !6
  store i32 %1, ptr %4, align 4, !tbaa !25
  call void @llvm.lifetime.start.p0(i64 8, ptr %5) #6
  %6 = load ptr, ptr %3, align 8, !tbaa !6
  %7 = load i32, ptr %4, align 4, !tbaa !25
  %8 = call ptr @_import_session_path(ptr noundef %6, i32 noundef %7)
  store ptr %8, ptr %5, align 8, !tbaa !64
  %9 = load ptr, ptr %5, align 8, !tbaa !64
  %10 = icmp eq ptr %9, null
  br i1 %10, label %11, label %22

11:                                               ; preds = %2
  br label %12

12:                                               ; preds = %11
  %13 = load i32, ptr getelementptr inbounds nuw (%struct.darktable_t, ptr @darktable, i32 0, i32 2), align 8, !tbaa !62
  %14 = xor i32 %13, -1
  %15 = and i32 0, %14
  %16 = icmp ne i32 %15, 0
  br i1 %16, label %18, label %17

17:                                               ; preds = %12
  call void (ptr, ...) @dt_print_ext(ptr noundef @.str.9)
  br label %18

18:                                               ; preds = %17, %12
  br label %19

19:                                               ; preds = %18
  br label %20

20:                                               ; preds = %19
  %21 = call ptr @dcgettext(ptr noundef null, ptr noundef @.str.10, i32 noundef 5) #6
  call void (ptr, ...) @dt_control_log(ptr noundef %21)
  br label %22

22:                                               ; preds = %20, %2
  %23 = load ptr, ptr %5, align 8, !tbaa !64
  call void @llvm.lifetime.end.p0(i64 8, ptr %5) #6
  ret ptr %23
}