; Function Attrs: nounwind uwtable
define ptr @dt_import_session_path(ptr noundef captures(none) %0, i32 noundef %1) local_unnamed_addr #0 {
  %3 = getelementptr inbounds nuw i8, ptr %0, i64 24
  %4 = load ptr, ptr %3, align 8, !tbaa !21
  %5 = tail call i32 @dt_util_test_writable_dir(ptr noundef %4) #9
  %.not.i = icmp eq i32 %1, 0
  br i1 %.not.i, label %10, label %6

6:                                                ; preds = %2
  %7 = load ptr, ptr %3, align 8, !tbaa !21
  %.not28.i = icmp eq ptr %7, null
  br i1 %.not28.i, label %10, label %8

8:                                                ; preds = %6
  %.not33.i = icmp eq i32 %5, 0
  br i1 %.not33.i, label %9, label %_import_session_path.exit.thread6

9:                                                ; preds = %8
  tail call void @g_free(ptr noundef nonnull %7) #9
  store ptr null, ptr %3, align 8, !tbaa !21
  br label %_import_session_path.exit.thread

10:                                               ; preds = %6, %2
  %11 = tail call ptr @dt_conf_get_string_const(ptr noundef nonnull @.str.14) #9
  %12 = tail call ptr @dt_conf_get_string_const(ptr noundef nonnull @.str.15) #9
  %13 = icmp ne ptr %12, null
  %14 = icmp ne ptr %11, null
  %or.cond.i.i = select i1 %13, i1 %14, i1 false
  br i1 %or.cond.i.i, label %_import_session_path_pattern.exit.i, label %_import_session_path_pattern.exit.thread.i

_import_session_path_pattern.exit.thread.i:       ; preds = %10
  tail call void (ptr, ...) @dt_print_ext(ptr noundef nonnull @.str.16) #9
  br label %17

_import_session_path_pattern.exit.i:              ; preds = %10
  %15 = tail call noalias ptr (ptr, ptr, ...) @g_build_path(ptr noundef nonnull @.str.4, ptr noundef nonnull %11, ptr noundef nonnull %12, ptr noundef null) #9
  %16 = icmp eq ptr %15, null
  br i1 %16, label %17, label %18

17:                                               ; preds = %_import_session_path_pattern.exit.i, %_import_session_path_pattern.exit.thread.i
  tail call void (ptr, ...) @dt_print_ext(ptr noundef nonnull @.str.13) #9
  br label %_import_session_path.exit.thread

18:                                               ; preds = %_import_session_path_pattern.exit.i
  %19 = getelementptr inbounds nuw i8, ptr %0, i64 16
  %20 = load ptr, ptr %19, align 8, !tbaa !15
  %21 = tail call ptr @dt_variables_expand(ptr noundef %20, ptr noundef nonnull %15, i32 noundef 0) #9
  tail call void @g_free(ptr noundef nonnull %15) #9
  %22 = load ptr, ptr %3, align 8, !tbaa !21
  %.not29.i = icmp eq ptr %22, null
  br i1 %.not29.i, label %27, label %23

23:                                               ; preds = %18
  %24 = tail call i32 @strcmp(ptr noundef nonnull dereferenceable(1) %22, ptr noundef nonnull dereferenceable(1) %21) #10
  %25 = icmp eq i32 %24, 0
  br i1 %25, label %26, label %27

26:                                               ; preds = %23
  tail call void @g_free(ptr noundef nonnull %21) #9
  %.not30.i = icmp eq i32 %5, 0
  %.pre.i = load ptr, ptr %3, align 8, !tbaa !21
  br i1 %.not30.i, label %.thread.i, label %_import_session_path.exit

27:                                               ; preds = %23, %18
  %.not31.i = icmp eq i32 %5, 0
  br i1 %.not31.i, label %.thread.i, label %29

.thread.i:                                        ; preds = %27, %26
  %28 = phi ptr [ %22, %27 ], [ %.pre.i, %26 ]
  %.039.i = phi ptr [ %21, %27 ], [ null, %26 ]
  tail call void @g_free(ptr noundef %28) #9
  store ptr null, ptr %3, align 8, !tbaa !21
  br label %29

29:                                               ; preds = %.thread.i, %27
  %.038.i = phi ptr [ %.039.i, %.thread.i ], [ %21, %27 ]
  tail call fastcc void @_import_session_cleanup_filmroll(ptr noundef nonnull %0)
  %30 = tail call i32 @g_mkdir_with_parents(ptr noundef %.038.i, i32 noundef 493) #9
  %31 = icmp eq i32 %30, -1
  br i1 %31, label %32, label %33

32:                                               ; preds = %29
  tail call void (ptr, ...) @dt_print_ext(ptr noundef nonnull @.str.17, ptr noundef %.038.i) #9
  br label %39

33:                                               ; preds = %29
  %34 = tail call noalias dereferenceable_or_null(584) ptr @g_malloc0(i64 noundef 584) #8
  %35 = getelementptr inbounds nuw i8, ptr %0, i64 8
  store ptr %34, ptr %35, align 8, !tbaa !16
  %36 = tail call i32 @dt_film_new(ptr noundef %34, ptr noundef %.038.i) #9
  %37 = icmp sgt i32 %36, 0
  br i1 %37, label %40, label %38

38:                                               ; preds = %33
  tail call void (ptr, ...) @dt_print_ext(ptr noundef nonnull @.str.18) #9
  br label %39

39:                                               ; preds = %38, %32
  tail call fastcc void @_import_session_cleanup_filmroll(ptr noundef nonnull %0)
  tail call void @g_free(ptr noundef %.038.i) #9
  br label %_import_session_path.exit.thread

40:                                               ; preds = %33
  %41 = load ptr, ptr %3, align 8, !tbaa !21
  tail call void @g_free(ptr noundef %41) #9
  store ptr %.038.i, ptr %3, align 8, !tbaa !21
  br label %_import_session_path.exit

_import_session_path.exit:                        ; preds = %26, %40
  %.024.i = phi ptr [ %.038.i, %40 ], [ %.pre.i, %26 ]
  %42 = icmp eq ptr %.024.i, null
  br i1 %42, label %_import_session_path.exit.thread, label %_import_session_path.exit.thread6

_import_session_path.exit.thread:                 ; preds = %39, %17, %9, %_import_session_path.exit
  tail call void (ptr, ...) @dt_print_ext(ptr noundef nonnull @.str.9) #9
  %43 = tail call ptr @dcgettext(ptr noundef null, ptr noundef nonnull @.str.10, i32 noundef 5) #9
  tail call void (ptr, ...) @dt_control_log(ptr noundef %43) #9
  br label %_import_session_path.exit.thread6

_import_session_path.exit.thread6:                ; preds = %8, %_import_session_path.exit.thread, %_import_session_path.exit
  %.024.i4 = phi ptr [ null, %_import_session_path.exit.thread ], [ %.024.i, %_import_session_path.exit ], [ %7, %8 ]
  ret ptr %.024.i4
}